target datalayout = "e-m:e-p270:32:32-p271:32:32-p272:64:64-i64:64-i128:128-f80:128-n8:16:32:64-S128"
target triple = "x86_64-pc-linux-gnu"

; Function Attrs: mustprogress nounwind uwtable
define hidden noundef i32 @_Z11uint64_log2m(i64 noundef %0) #4 {
  %2 = alloca i64, align 8
  %3 = alloca i32, align 4
  store i64 %0, ptr %2, align 8, !tbaa !11
  call void @llvm.lifetime.start.p0(i64 4, ptr %3) #3
  store i32 0, ptr %3, align 4, !tbaa !3
  %4 = load i64, ptr %2, align 8, !tbaa !11
  %5 = and i64 %4, -4294967296
  %6 = icmp ne i64 %5, 0
  br i1 %6, label %7, label %12

7:                                                ; preds = %1
  %8 = load i64, ptr %2, align 8, !tbaa !11
  %9 = lshr i64 %8, 32
  store i64 %9, ptr %2, align 8, !tbaa !11
  %10 = load i32, ptr %3, align 4, !tbaa !3
  %11 = or i32 %10, 32
  store i32 %11, ptr %3, align 4, !tbaa !3
  br label %12

12:                                               ; preds = %7, %1
  %13 = load i64, ptr %2, align 8, !tbaa !11
  %14 = and i64 %13, 4294901760
  %15 = icmp ne i64 %14, 0
  br i1 %15, label %16, label %21

16:                                               ; preds = %12
  %17 = load i64, ptr %2, align 8, !tbaa !11
  %18 = lshr i64 %17, 16
  store i64 %18, ptr %2, align 8, !tbaa !11
  %19 = load i32, ptr %3, align 4, !tbaa !3
  %20 = or i32 %19, 16
  store i32 %20, ptr %3, align 4, !tbaa !3
  br label %21

21:                                               ; preds = %16, %12
  %22 = load i64, ptr %2, align 8, !tbaa !11
  %23 = and i64 %22, 65280
  %24 = icmp ne i64 %23, 0
  br i1 %24, label %25, label %30

25:                                               ; preds = %21
  %26 = load i64, ptr %2, align 8, !tbaa !11
  %27 = lshr i64 %26, 8
  store i64 %27, ptr %2, align 8, !tbaa !11
  %28 = load i32, ptr %3, align 4, !tbaa !3
  %29 = or i32 %28, 8
  store i32 %29, ptr %3, align 4, !tbaa !3
  br label %30

30:                                               ; preds = %25, %21
  %31 = load i64, ptr %2, align 8, !tbaa !11
  %32 = and i64 %31, 240
  %33 = icmp ne i64 %32, 0
  br i1 %33, label %34, label %39

34:                                               ; preds = %30
  %35 = load i64, ptr %2, align 8, !tbaa !11
  %36 = lshr i64 %35, 4
  store i64 %36, ptr %2, align 8, !tbaa !11
  %37 = load i32, ptr %3, align 4, !tbaa !3
  %38 = or i32 %37, 4
  store i32 %38, ptr %3, align 4, !tbaa !3
  br label %39

39:                                               ; preds = %34, %30
  %40 = load i64, ptr %2, align 8, !tbaa !11
  %41 = and i64 %40, 12
  %42 = icmp ne i64 %41, 0
  br i1 %42, label %43, label %48

43:                                               ; preds = %39
  %44 = load i64, ptr %2, align 8, !tbaa !11
  %45 = lshr i64 %44, 2
  store i64 %45, ptr %2, align 8, !tbaa !11
  %46 = load i32, ptr %3, align 4, !tbaa !3
  %47 = or i32 %46, 2
  store i32 %47, ptr %3, align 4, !tbaa !3
  br label %48

48:                                               ; preds = %43, %39
  %49 = load i64, ptr %2, align 8, !tbaa !11
  %50 = and i64 %49, 2
  %51 = icmp ne i64 %50, 0
  br i1 %51, label %52, label %57

52:                                               ; preds = %48
  %53 = load i64, ptr %2, align 8, !tbaa !11
  %54 = lshr i64 %53, 1
  store i64 %54, ptr %2, align 8, !tbaa !11
  %55 = load i32, ptr %3, align 4, !tbaa !3
  %56 = or i32 %55, 1
  store i32 %56, ptr %3, align 4, !tbaa !3
  br label %57

57:                                               ; preds = %52, %48
  %58 = load i32, ptr %3, align 4, !tbaa !3
  call void @llvm.lifetime.end.p0(i64 4, ptr %3) #3
  ret i32 %58
}