; Function Attrs: mustprogress nofree norecurse nosync nounwind willreturn memory(none) uwtable
define hidden noundef range(i32 0, 64) i32 @_Z11uint64_log2m(i64 noundef %0) local_unnamed_addr #7 {
  %.not = icmp ult i64 %0, 4294967296
  %2 = lshr i64 %0, 32
  %spec.select = select i1 %.not, i64 %0, i64 %2
  %spec.select29 = select i1 %.not, i32 0, i32 32
  %.not24 = icmp samesign ult i64 %spec.select, 65536
  %3 = lshr i64 %spec.select, 16
  %4 = or disjoint i32 %spec.select29, 16
  %.120 = select i1 %.not24, i64 %spec.select, i64 %3
  %.1 = select i1 %.not24, i32 %spec.select29, i32 %4
  %.not25 = icmp samesign ult i64 %.120, 256
  %5 = lshr i64 %.120, 8
  %6 = or disjoint i32 %.1, 8
  %.221 = select i1 %.not25, i64 %.120, i64 %5
  %.2 = select i1 %.not25, i32 %.1, i32 %6
  %.not26 = icmp samesign ult i64 %.221, 16
  %7 = lshr i64 %.221, 4
  %8 = or disjoint i32 %.2, 4
  %.322 = select i1 %.not26, i64 %.221, i64 %7
  %.3 = select i1 %.not26, i32 %.2, i32 %8
  %9 = and i64 %.322, 12
  %.not27 = icmp eq i64 %9, 0
  %10 = lshr i64 %.322, 2
  %11 = or i32 %.3, 2
  %.423 = select i1 %.not27, i64 %.322, i64 %10
  %.4 = select i1 %.not27, i32 %.3, i32 %11
  %12 = trunc i64 %.423 to i32
  %13 = lshr i32 %12, 1
  %14 = and i32 %13, 1
  %.5 = or i32 %14, %.4
  ret i32 %.5
}